target datalayout = "e-m:e-p270:32:32-p271:32:32-p272:64:64-i64:64-i128:128-f80:128-n8:16:32:64-S128"
target triple = "x86_64-pc-linux-gnu"

%struct.h5tools_dump_header_t = type { ptr, ptr, ptr, ptr, ptr, ptr, ptr, ptr, ptr, ptr, ptr, ptr, ptr, ptr, ptr, ptr, ptr, ptr, ptr, ptr, ptr, ptr, ptr, ptr, ptr, ptr, ptr, ptr, ptr, ptr, ptr, ptr, ptr, ptr, ptr, ptr, ptr, ptr, ptr, ptr, ptr, ptr, ptr, ptr, ptr, ptr, ptr, ptr, ptr, ptr, ptr, ptr, ptr, ptr, ptr, ptr, ptr, ptr, ptr, ptr, ptr, ptr, ptr, ptr, ptr, ptr, ptr, ptr, ptr, ptr, ptr, ptr, ptr, ptr, ptr, ptr, ptr, ptr, ptr, ptr, ptr, ptr, ptr, ptr, ptr, ptr, ptr, ptr, ptr, ptr, ptr, ptr, ptr, ptr, ptr }

@dump_indent = external global i32, align 4
@rawoutstream = external global ptr, align 8
@.str.4 = private unnamed_addr constant [11 x i8] c"%s \22%s\22 %s\00", align 1
@h5tools_dump_header_format = external global ptr, align 8
@.str.10 = private unnamed_addr constant [3 x i8] c"%s\00", align 1
@.str.11 = private unnamed_addr constant [2 x i8] c" \00", align 1
@.str.70 = private unnamed_addr constant [2 x i8] c"\0A\00", align 1
@.str.71 = private unnamed_addr constant [6 x i8] c"%s %s\00", align 1
@.str.73 = private unnamed_addr constant [27 x i8] c"unable to open group \22%s\22\0A\00", align 1
@prefix_len = external global i64, align 8
@prefix = external global ptr, align 8

; Function Attrs: nounwind uwtable
define dso_local void @handle_groups(i64 noundef %0, ptr noundef %1, ptr noundef %2, i32 noundef %3, ptr noundef %4) #0 {
  %6 = alloca i64, align 8
  %7 = alloca ptr, align 8
  %8 = alloca ptr, align 8
  %9 = alloca i32, align 4
  %10 = alloca ptr, align 8
  %11 = alloca i64, align 8
  %12 = alloca ptr, align 8
  %13 = alloca i64, align 8
  store i64 %0, ptr %6, align 8, !tbaa !4
  store ptr %1, ptr %7, align 8, !tbaa !22
  store ptr %2, ptr %8, align 8, !tbaa !24
  store i32 %3, ptr %9, align 4, !tbaa !11
  store ptr %4, ptr %10, align 8, !tbaa !22
  call void @llvm.lifetime.start.p0(i64 8, ptr %11) #10
  call void @llvm.lifetime.start.p0(i64 8, ptr %12) #10
  %14 = load ptr, ptr %10, align 8, !tbaa !22
  %15 = icmp ne ptr %14, null
  br i1 %15, label %16, label %18

16:                                               ; preds = %5
  %17 = load ptr, ptr %10, align 8, !tbaa !22
  br label %20

18:                                               ; preds = %5
  %19 = load ptr, ptr %7, align 8, !tbaa !22
  br label %20

20:                                               ; preds = %18, %16
  %21 = phi ptr [ %17, %16 ], [ %19, %18 ]
  store ptr %21, ptr %12, align 8, !tbaa !22
  %22 = load i64, ptr %6, align 8, !tbaa !4
  %23 = load ptr, ptr %7, align 8, !tbaa !22
  %24 = call i64 @H5Gopen2(i64 noundef %22, ptr noundef %23, i64 noundef 0)
  store i64 %24, ptr %11, align 8, !tbaa !4
  %25 = icmp slt i64 %24, 0
  br i1 %25, label %26, label %125

26:                                               ; preds = %20
  %27 = load i32, ptr %9, align 4, !tbaa !11
  %28 = icmp ne i32 %27, 0
  br i1 %28, label %29, label %124

29:                                               ; preds = %26
  %30 = load ptr, ptr @rawoutstream, align 8, !tbaa !20
  %31 = icmp ne ptr %30, null
  br i1 %31, label %32, label %35

32:                                               ; preds = %29
  %33 = load ptr, ptr @rawoutstream, align 8, !tbaa !20
  %34 = call i32 (ptr, ptr, ...) @fprintf(ptr noundef %33, ptr noundef @.str.70) #10
  br label %35

35:                                               ; preds = %32, %29
  br label %36

36:                                               ; preds = %35
  %37 = load ptr, ptr %12, align 8, !tbaa !22
  %38 = icmp ne ptr %37, null
  br i1 %38, label %39, label %53

39:                                               ; preds = %36
  %40 = load ptr, ptr @rawoutstream, align 8, !tbaa !20
  %41 = icmp ne ptr %40, null
  br i1 %41, label %42, label %52

42:                                               ; preds = %39
  %43 = load ptr, ptr @rawoutstream, align 8, !tbaa !20
  %44 = load ptr, ptr @h5tools_dump_header_format, align 8, !tbaa !65
  %45 = getelementptr inbounds nuw %struct.h5tools_dump_header_t, ptr %44, i32 0, i32 5
  %46 = load ptr, ptr %45, align 8, !tbaa !94
  %47 = load ptr, ptr %12, align 8, !tbaa !22
  %48 = load ptr, ptr @h5tools_dump_header_format, align 8, !tbaa !65
  %49 = getelementptr inbounds nuw %struct.h5tools_dump_header_t, ptr %48, i32 0, i32 37
  %50 = load ptr, ptr %49, align 8, !tbaa !95
  %51 = call i32 (ptr, ptr, ...) @fprintf(ptr noundef %43, ptr noundef @.str.4, ptr noundef %46, ptr noundef %47, ptr noundef %50) #10
  br label %52

52:                                               ; preds = %42, %39
  br label %66

53:                                               ; preds = %36
  %54 = load ptr, ptr @rawoutstream, align 8, !tbaa !20
  %55 = icmp ne ptr %54, null
  br i1 %55, label %56, label %65

56:                                               ; preds = %53
  %57 = load ptr, ptr @rawoutstream, align 8, !tbaa !20
  %58 = load ptr, ptr @h5tools_dump_header_format, align 8, !tbaa !65
  %59 = getelementptr inbounds nuw %struct.h5tools_dump_header_t, ptr %58, i32 0, i32 5
  %60 = load ptr, ptr %59, align 8, !tbaa !94
  %61 = load ptr, ptr @h5tools_dump_header_format, align 8, !tbaa !65
  %62 = getelementptr inbounds nuw %struct.h5tools_dump_header_t, ptr %61, i32 0, i32 37
  %63 = load ptr, ptr %62, align 8, !tbaa !95
  %64 = call i32 (ptr, ptr, ...) @fprintf(ptr noundef %57, ptr noundef @.str.71, ptr noundef %60, ptr noundef %63) #10
  br label %65

65:                                               ; preds = %56, %53
  br label %66

66:                                               ; preds = %65, %52
  br label %67

67:                                               ; preds = %66
  br label %68

68:                                               ; preds = %67
  %69 = load ptr, ptr @rawoutstream, align 8, !tbaa !20
  %70 = icmp ne ptr %69, null
  br i1 %70, label %71, label %74

71:                                               ; preds = %68
  %72 = load ptr, ptr @rawoutstream, align 8, !tbaa !20
  %73 = call i32 (ptr, ptr, ...) @fprintf(ptr noundef %72, ptr noundef @.str.70) #10
  br label %74

74:                                               ; preds = %71, %68
  call void @indentation(i32 noundef 3)
  %75 = load ptr, ptr %12, align 8, !tbaa !22
  call void (ptr, ...) @error_msg(ptr noundef @.str.73, ptr noundef %75)
  br label %76

76:                                               ; preds = %74
  %77 = load ptr, ptr @h5tools_dump_header_format, align 8, !tbaa !65
  %78 = getelementptr inbounds nuw %struct.h5tools_dump_header_t, ptr %77, i32 0, i32 38
  %79 = load ptr, ptr %78, align 8, !tbaa !102
  %80 = call i64 @strlen(ptr noundef %79) #11
  %81 = icmp ne i64 %80, 0
  br i1 %81, label %82, label %105

82:                                               ; preds = %76
  %83 = load ptr, ptr @rawoutstream, align 8, !tbaa !20
  %84 = icmp ne ptr %83, null
  br i1 %84, label %85, label %91

85:                                               ; preds = %82
  %86 = load ptr, ptr @rawoutstream, align 8, !tbaa !20
  %87 = load ptr, ptr @h5tools_dump_header_format, align 8, !tbaa !65
  %88 = getelementptr inbounds nuw %struct.h5tools_dump_header_t, ptr %87, i32 0, i32 38
  %89 = load ptr, ptr %88, align 8, !tbaa !102
  %90 = call i32 (ptr, ptr, ...) @fprintf(ptr noundef %86, ptr noundef @.str.10, ptr noundef %89) #10
  br label %91

91:                                               ; preds = %85, %82
  %92 = load ptr, ptr @h5tools_dump_header_format, align 8, !tbaa !65
  %93 = getelementptr inbounds nuw %struct.h5tools_dump_header_t, ptr %92, i32 0, i32 6
  %94 = load ptr, ptr %93, align 8, !tbaa !103
  %95 = call i64 @strlen(ptr noundef %94) #11
  %96 = icmp ne i64 %95, 0
  br i1 %96, label %97, label %104

97:                                               ; preds = %91
  %98 = load ptr, ptr @rawoutstream, align 8, !tbaa !20
  %99 = icmp ne ptr %98, null
  br i1 %99, label %100, label %103

100:                                              ; preds = %97
  %101 = load ptr, ptr @rawoutstream, align 8, !tbaa !20
  %102 = call i32 (ptr, ptr, ...) @fprintf(ptr noundef %101, ptr noundef @.str.11) #10
  br label %103

103:                                              ; preds = %100, %97
  br label %104

104:                                              ; preds = %103, %91
  br label %105

105:                                              ; preds = %104, %76
  %106 = load ptr, ptr @h5tools_dump_header_format, align 8, !tbaa !65
  %107 = getelementptr inbounds nuw %struct.h5tools_dump_header_t, ptr %106, i32 0, i32 6
  %108 = load ptr, ptr %107, align 8, !tbaa !103
  %109 = call i64 @strlen(ptr noundef %108) #11
  %110 = icmp ne i64 %109, 0
  br i1 %110, label %111, label %121

111:                                              ; preds = %105
  %112 = load ptr, ptr @rawoutstream, align 8, !tbaa !20
  %113 = icmp ne ptr %112, null
  br i1 %113, label %114, label %120

114:                                              ; preds = %111
  %115 = load ptr, ptr @rawoutstream, align 8, !tbaa !20
  %116 = load ptr, ptr @h5tools_dump_header_format, align 8, !tbaa !65
  %117 = getelementptr inbounds nuw %struct.h5tools_dump_header_t, ptr %116, i32 0, i32 6
  %118 = load ptr, ptr %117, align 8, !tbaa !103
  %119 = call i32 (ptr, ptr, ...) @fprintf(ptr noundef %115, ptr noundef @.str.10, ptr noundef %118) #10
  br label %120

120:                                              ; preds = %114, %111
  br label %121

121:                                              ; preds = %120, %105
  br label %122

122:                                              ; preds = %121
  br label %123

123:                                              ; preds = %122
  call void @h5tools_setstatus(i32 noundef 1)
  br label %124

124:                                              ; preds = %123, %26
  br label %152

125:                                              ; preds = %20
  call void @llvm.lifetime.start.p0(i64 8, ptr %13) #10
  %126 = load ptr, ptr %7, align 8, !tbaa !22
  %127 = call i64 @strlen(ptr noundef %126) #11
  %128 = add i64 %127, 1
  store i64 %128, ptr %13, align 8, !tbaa !4
  %129 = load i64, ptr @prefix_len, align 8, !tbaa !4
  %130 = load i64, ptr %13, align 8, !tbaa !4
  %131 = icmp ule i64 %129, %130
  br i1 %131, label %132, label %137

132:                                              ; preds = %125
  %133 = load i64, ptr %13, align 8, !tbaa !4
  store i64 %133, ptr @prefix_len, align 8, !tbaa !4
  %134 = load ptr, ptr @prefix, align 8, !tbaa !22
  %135 = load i64, ptr @prefix_len, align 8, !tbaa !4
  %136 = call ptr @realloc(ptr noundef %134, i64 noundef %135) #14
  store ptr %136, ptr @prefix, align 8, !tbaa !22
  br label %137

137:                                              ; preds = %132, %125
  %138 = load ptr, ptr @prefix, align 8, !tbaa !22
  %139 = load ptr, ptr %7, align 8, !tbaa !22
  %140 = call ptr @strcpy(ptr noundef %138, ptr noundef %139) #10
  %141 = load i32, ptr @dump_indent, align 4, !tbaa !11
  %142 = add i32 %141, 3
  store i32 %142, ptr @dump_indent, align 4, !tbaa !11
  %143 = load i64, ptr %11, align 8, !tbaa !4
  %144 = load ptr, ptr %12, align 8, !tbaa !22
  call void @dump_group(i64 noundef %143, ptr noundef %144)
  %145 = load i32, ptr @dump_indent, align 4, !tbaa !11
  %146 = sub i32 %145, 3
  store i32 %146, ptr @dump_indent, align 4, !tbaa !11
  %147 = load i64, ptr %11, align 8, !tbaa !4
  %148 = call i32 @H5Gclose(i64 noundef %147)
  %149 = icmp slt i32 %148, 0
  br i1 %149, label %150, label %151

150:                                              ; preds = %137
  call void @h5tools_setstatus(i32 noundef 1)
  br label %151

151:                                              ; preds = %150, %137
  call void @llvm.lifetime.end.p0(i64 8, ptr %13) #10
  br label %152

152:                                              ; preds = %151, %124
  call void @llvm.lifetime.end.p0(i64 8, ptr %12) #10
  call void @llvm.lifetime.end.p0(i64 8, ptr %11) #10
  ret void
}