; Function Attrs: nounwind uwtable
define dso_local void @handle_groups(i64 noundef %0, ptr noundef %1, ptr readnone captures(none) %2, i32 noundef %3, ptr noundef %4) local_unnamed_addr #0 {
  %.not = icmp eq ptr %4, null
  %6 = select i1 %.not, ptr %1, ptr %4
  %7 = tail call i64 @H5Gopen2(i64 noundef %0, ptr noundef %1, i64 noundef 0) #15
  %8 = icmp slt i64 %7, 0
  br i1 %8, label %9, label %51

9:                                                ; preds = %5
  %.not28 = icmp eq i32 %3, 0
  br i1 %.not28, label %66, label %10

10:                                               ; preds = %9
  %11 = load ptr, ptr @rawoutstream, align 8, !tbaa !17
  %.not29 = icmp eq ptr %11, null
  br i1 %.not29, label %13, label %12

12:                                               ; preds = %10
  %fputc = tail call i32 @fputc(i32 10, ptr nonnull %11)
  br label %13

13:                                               ; preds = %10, %12
  %.not30 = icmp eq ptr %6, null
  %14 = load ptr, ptr @rawoutstream, align 8, !tbaa !17
  %.not31 = icmp eq ptr %14, null
  br i1 %.not30, label %23, label %15

15:                                               ; preds = %13
  br i1 %.not31, label %.thread, label %16

16:                                               ; preds = %15
  %17 = load ptr, ptr @h5tools_dump_header_format, align 8, !tbaa !60
  %18 = getelementptr inbounds nuw i8, ptr %17, i64 40
  %19 = load ptr, ptr %18, align 8, !tbaa !96
  %20 = getelementptr inbounds nuw i8, ptr %17, i64 296
  %21 = load ptr, ptr %20, align 8, !tbaa !97
  %22 = tail call i32 (ptr, ptr, ...) @fprintf(ptr noundef nonnull %14, ptr noundef nonnull @.str.4, ptr noundef %19, ptr noundef nonnull %6, ptr noundef %21) #15
  br label %31

23:                                               ; preds = %13
  br i1 %.not31, label %.thread, label %24

24:                                               ; preds = %23
  %25 = load ptr, ptr @h5tools_dump_header_format, align 8, !tbaa !60
  %26 = getelementptr inbounds nuw i8, ptr %25, i64 40
  %27 = load ptr, ptr %26, align 8, !tbaa !96
  %28 = getelementptr inbounds nuw i8, ptr %25, i64 296
  %29 = load ptr, ptr %28, align 8, !tbaa !97
  %30 = tail call i32 (ptr, ptr, ...) @fprintf(ptr noundef nonnull %14, ptr noundef nonnull @.str.71, ptr noundef %27, ptr noundef %29) #15
  br label %31

31:                                               ; preds = %24, %16
  %.pr = load ptr, ptr @rawoutstream, align 8, !tbaa !17
  %.not33 = icmp eq ptr %.pr, null
  br i1 %.not33, label %.thread, label %32

32:                                               ; preds = %31
  %fputc34 = tail call i32 @fputc(i32 10, ptr nonnull %.pr)
  br label %.thread

.thread:                                          ; preds = %15, %23, %32, %31
  tail call void @indentation(i32 noundef 3) #15
  tail call void (ptr, ...) @error_msg(ptr noundef nonnull @.str.73, ptr noundef %6) #15
  %33 = load ptr, ptr @h5tools_dump_header_format, align 8, !tbaa !60
  %34 = getelementptr inbounds nuw i8, ptr %33, i64 304
  %35 = load ptr, ptr %34, align 8, !tbaa !105
  %char0 = load i8, ptr %35, align 1
  %.not35 = icmp eq i8 %char0, 0
  %.pre46 = load ptr, ptr @rawoutstream, align 8
  br i1 %.not35, label %43, label %36

36:                                               ; preds = %.thread
  %.not36 = icmp eq ptr %.pre46, null
  br i1 %.not36, label %.sink.split, label %37

37:                                               ; preds = %36
  %fputs = tail call i32 @fputs(ptr nonnull %35, ptr nonnull %.pre46)
  %.pre42 = load ptr, ptr @h5tools_dump_header_format, align 8, !tbaa !60
  %.pre43 = load ptr, ptr @rawoutstream, align 8
  %38 = getelementptr inbounds nuw i8, ptr %.pre42, i64 48
  %39 = load ptr, ptr %38, align 8, !tbaa !106
  %char037 = load i8, ptr %39, align 1
  %40 = icmp ne i8 %char037, 0
  %41 = icmp ne ptr %.pre43, null
  %or.cond = select i1 %40, i1 %41, i1 false
  br i1 %or.cond, label %42, label %43

42:                                               ; preds = %37
  %fputc38 = tail call i32 @fputc(i32 32, ptr nonnull %.pre43)
  %.pre44 = load ptr, ptr @h5tools_dump_header_format, align 8, !tbaa !60
  %.pre45 = load ptr, ptr @rawoutstream, align 8
  br label %43

43:                                               ; preds = %37, %42, %.thread
  %44 = phi ptr [ %.pre43, %37 ], [ %.pre45, %42 ], [ %.pre46, %.thread ]
  %45 = phi ptr [ %.pre42, %37 ], [ %.pre44, %42 ], [ %33, %.thread ]
  %46 = getelementptr inbounds nuw i8, ptr %45, i64 48
  %47 = load ptr, ptr %46, align 8, !tbaa !106
  %char039 = load i8, ptr %47, align 1
  %48 = icmp ne i8 %char039, 0
  %49 = icmp ne ptr %44, null
  %or.cond3 = select i1 %48, i1 %49, i1 false
  br i1 %or.cond3, label %50, label %.sink.split

50:                                               ; preds = %43
  %fputs40 = tail call i32 @fputs(ptr nonnull %47, ptr nonnull %44)
  br label %.sink.split

51:                                               ; preds = %5
  %52 = tail call i64 @strlen(ptr noundef nonnull dereferenceable(1) %1) #17
  %53 = add i64 %52, 1
  %54 = load i64, ptr @prefix_len, align 8, !tbaa !33
  %.not27 = icmp ugt i64 %54, %53
  %.pre = load ptr, ptr @prefix, align 8, !tbaa !30
  br i1 %.not27, label %57, label %55

55:                                               ; preds = %51
  store i64 %53, ptr @prefix_len, align 8, !tbaa !33
  %56 = tail call ptr @realloc(ptr noundef %.pre, i64 noundef %53) #19
  store ptr %56, ptr @prefix, align 8, !tbaa !30
  br label %57

57:                                               ; preds = %55, %51
  %58 = phi ptr [ %56, %55 ], [ %.pre, %51 ]
  %59 = tail call ptr @strcpy(ptr noundef nonnull dereferenceable(1) %58, ptr noundef nonnull dereferenceable(1) %1) #15
  %60 = load i32, ptr @dump_indent, align 4, !tbaa !4
  %61 = add i32 %60, 3
  store i32 %61, ptr @dump_indent, align 4, !tbaa !4
  tail call void @dump_group(i64 noundef %7, ptr noundef nonnull %6)
  %62 = load i32, ptr @dump_indent, align 4, !tbaa !4
  %63 = add i32 %62, -3
  store i32 %63, ptr @dump_indent, align 4, !tbaa !4
  %64 = tail call i32 @H5Gclose(i64 noundef %7) #15
  %65 = icmp slt i32 %64, 0
  br i1 %65, label %.sink.split, label %66

.sink.split:                                      ; preds = %57, %43, %50, %36
  tail call void @h5tools_setstatus(i32 noundef 1) #15
  br label %66

66:                                               ; preds = %.sink.split, %57, %9
  ret void
}